; Function Attrs: mustprogress nofree norecurse nosync nounwind willreturn memory(read, inaccessiblemem: none) uwtable
define dso_local noundef zeroext i1 @_ZNK4llvm12MachineInstr24shouldUpdateCallSiteInfoEv(ptr nocapture noundef nonnull readonly align 8 dereferenceable(70) %0) local_unnamed_addr #3 align 2 {
  %2 = getelementptr inbounds nuw i8, ptr %0, i64 68
  %3 = load i16, ptr %2, align 4
  %4 = icmp eq i16 %3, 20
  br i1 %4, label %5, label %30

5:                                                ; preds = %1
  %6 = getelementptr inbounds nuw i8, ptr %0, i64 44
  %7 = load i32, ptr %6, align 4
  %8 = and i32 %7, 12
  %9 = icmp eq i32 %8, 0
  %10 = and i32 %7, 4
  %11 = icmp ne i32 %10, 0
  %or.cond.i.i.i = or i1 %9, %11
  %12 = getelementptr inbounds nuw i8, ptr %0, i64 16
  %13 = load ptr, ptr %12, align 8
  %14 = getelementptr inbounds nuw i8, ptr %13, i64 16
  %15 = load i64, ptr %14, align 8
  %16 = and i64 %15, 128
  %.not.i = icmp eq i64 %16, 0
  br i1 %or.cond.i.i.i, label %17, label %18

17:                                               ; preds = %5
  br i1 %.not.i, label %_ZNK4llvm12MachineInstr27isCandidateForCallSiteEntryENS0_9QueryTypeE.exit, label %_ZNK4llvm12MachineInstr6isCallENS0_9QueryTypeE.exit.thread.i.thread

18:                                               ; preds = %5
  br i1 %.not.i, label %.lr.ph.i.i.i.i, label %_ZNK4llvm12MachineInstr6isCallENS0_9QueryTypeE.exit.thread.i.thread

.lr.ph.i.i.i.i:                                   ; preds = %18, %22
  %.sroa.0.0.us1115.i.i.i.i = phi ptr [ %24, %22 ], [ %0, %18 ]
  %19 = getelementptr inbounds nuw i8, ptr %.sroa.0.0.us1115.i.i.i.i, i64 44
  %20 = load i32, ptr %19, align 4
  %21 = and i32 %20, 8
  %.not8.us13.i.i.i.i = icmp eq i32 %21, 0
  br i1 %.not8.us13.i.i.i.i, label %_ZNK4llvm12MachineInstr27isCandidateForCallSiteEntryENS0_9QueryTypeE.exit, label %22

22:                                               ; preds = %.lr.ph.i.i.i.i
  %23 = getelementptr inbounds nuw i8, ptr %.sroa.0.0.us1115.i.i.i.i, i64 8
  %24 = load ptr, ptr %23, align 8
  %25 = getelementptr inbounds nuw i8, ptr %24, i64 16
  %26 = load ptr, ptr %25, align 8
  %27 = getelementptr inbounds nuw i8, ptr %26, i64 16
  %28 = load i64, ptr %27, align 8
  %29 = and i64 %28, 128
  %.not.us12.i.i.i.i = icmp eq i64 %29, 0
  br i1 %.not.us12.i.i.i.i, label %.lr.ph.i.i.i.i, label %_ZNK4llvm12MachineInstr6isCallENS0_9QueryTypeE.exit.thread.i.thread, !llvm.loop !21

_ZNK4llvm12MachineInstr6isCallENS0_9QueryTypeE.exit.thread.i.thread: ; preds = %22, %17, %18
  br label %_ZNK4llvm12MachineInstr27isCandidateForCallSiteEntryENS0_9QueryTypeE.exit

30:                                               ; preds = %1
  %31 = getelementptr inbounds nuw i8, ptr %0, i64 16
  %32 = load ptr, ptr %31, align 8
  %33 = getelementptr inbounds nuw i8, ptr %32, i64 16
  %34 = load i64, ptr %33, align 8
  %35 = and i64 %34, 128
  %.not.i2 = icmp eq i64 %35, 0
  br i1 %.not.i2, label %_ZNK4llvm12MachineInstr27isCandidateForCallSiteEntryENS0_9QueryTypeE.exit, label %_ZNK4llvm12MachineInstr6isCallENS0_9QueryTypeE.exit.thread.i3

_ZNK4llvm12MachineInstr6isCallENS0_9QueryTypeE.exit.thread.i3: ; preds = %30
  %36 = icmp ult i16 %3, 32
  br i1 %36, label %switch.lookup, label %_ZNK4llvm12MachineInstr27isCandidateForCallSiteEntryENS0_9QueryTypeE.exit

switch.lookup:                                    ; preds = %_ZNK4llvm12MachineInstr6isCallENS0_9QueryTypeE.exit.thread.i3
  %switch.cast = zext nneg i16 %3 to i32
  %switch.downshift = lshr i32 1912602623, %switch.cast
  %switch.masked = trunc i32 %switch.downshift to i1
  br label %_ZNK4llvm12MachineInstr27isCandidateForCallSiteEntryENS0_9QueryTypeE.exit

_ZNK4llvm12MachineInstr27isCandidateForCallSiteEntryENS0_9QueryTypeE.exit: ; preds = %.lr.ph.i.i.i.i, %_ZNK4llvm12MachineInstr6isCallENS0_9QueryTypeE.exit.thread.i3, %switch.lookup, %30, %_ZNK4llvm12MachineInstr6isCallENS0_9QueryTypeE.exit.thread.i.thread, %17
  %.0 = phi i1 [ true, %_ZNK4llvm12MachineInstr6isCallENS0_9QueryTypeE.exit.thread.i.thread ], [ false, %17 ], [ false, %30 ], [ %switch.masked, %switch.lookup ], [ true, %_ZNK4llvm12MachineInstr6isCallENS0_9QueryTypeE.exit.thread.i3 ], [ false, %.lr.ph.i.i.i.i ]
  ret i1 %.0
}